; Function Attrs: nounwind uwtable
define noalias ptr @l_Array_forIn_x27Unsafe_loop___at_Lean_Elab_PartialFixpoint_unfoldPredRel___spec__4___boxed(ptr noundef %0, ptr noundef %1, ptr noundef %2, ptr noundef %3, ptr noundef %4, ptr noundef %5, ptr noundef %6, ptr noundef %7, ptr noundef %8, ptr noundef %9, ptr noundef %10) local_unnamed_addr #0 {
  %12 = getelementptr i8, ptr %3, i64 8
  %.val46 = load i64, ptr %12, align 8, !tbaa !11
  %13 = ptrtoint ptr %3 to i64
  %14 = and i64 %13, 1
  %.not = icmp eq i64 %14, 0
  br i1 %.not, label %15, label %lean_dec.exit29

15:                                               ; preds = %11
  %16 = load i32, ptr %3, align 4, !tbaa !4
  %17 = icmp sgt i32 %16, 1
  br i1 %17, label %18, label %20, !prof !14

18:                                               ; preds = %15
  %19 = add nsw i32 %16, -1
  store i32 %19, ptr %3, align 4, !tbaa !4
  br label %lean_dec.exit29

20:                                               ; preds = %15
  %.not.i = icmp eq i32 %16, 0
  br i1 %.not.i, label %lean_dec.exit29, label %21

21:                                               ; preds = %20
  tail call void @lean_dec_ref_cold(ptr noundef nonnull %3) #6
  br label %lean_dec.exit29

lean_dec.exit29:                                  ; preds = %21, %20, %18, %11
  %22 = getelementptr i8, ptr %4, i64 8
  %.val = load i64, ptr %22, align 8, !tbaa !11
  %23 = ptrtoint ptr %4 to i64
  %24 = and i64 %23, 1
  %.not47 = icmp eq i64 %24, 0
  br i1 %.not47, label %25, label %lean_dec.exit28

25:                                               ; preds = %lean_dec.exit29
  %26 = load i32, ptr %4, align 4, !tbaa !4
  %27 = icmp sgt i32 %26, 1
  br i1 %27, label %28, label %30, !prof !14

28:                                               ; preds = %25
  %29 = add nsw i32 %26, -1
  store i32 %29, ptr %4, align 4, !tbaa !4
  br label %lean_dec.exit28

30:                                               ; preds = %25
  %.not.i30 = icmp eq i32 %26, 0
  br i1 %.not.i30, label %lean_dec.exit28, label %31

31:                                               ; preds = %30
  tail call void @lean_dec_ref_cold(ptr noundef nonnull %4) #6
  br label %lean_dec.exit28

lean_dec.exit28:                                  ; preds = %31, %30, %28, %lean_dec.exit29
  %32 = tail call ptr @l_Array_forIn_x27Unsafe_loop___at_Lean_Elab_PartialFixpoint_unfoldPredRel___spec__4(ptr poison, ptr poison, ptr noundef %2, i64 noundef %.val46, i64 noundef %.val, ptr noundef %5, ptr poison, ptr poison, ptr poison, ptr poison, ptr noundef %10)
  %33 = ptrtoint ptr %9 to i64
  %34 = and i64 %33, 1
  %.not48 = icmp eq i64 %34, 0
  br i1 %.not48, label %35, label %lean_dec.exit27

35:                                               ; preds = %lean_dec.exit28
  %36 = load i32, ptr %9, align 4, !tbaa !4
  %37 = icmp sgt i32 %36, 1
  br i1 %37, label %38, label %40, !prof !14

38:                                               ; preds = %35
  %39 = add nsw i32 %36, -1
  store i32 %39, ptr %9, align 4, !tbaa !4
  br label %lean_dec.exit27

40:                                               ; preds = %35
  %.not.i32 = icmp eq i32 %36, 0
  br i1 %.not.i32, label %lean_dec.exit27, label %41

41:                                               ; preds = %40
  tail call void @lean_dec_ref_cold(ptr noundef nonnull %9) #6
  br label %lean_dec.exit27

lean_dec.exit27:                                  ; preds = %41, %40, %38, %lean_dec.exit28
  %42 = ptrtoint ptr %8 to i64
  %43 = and i64 %42, 1
  %.not49 = icmp eq i64 %43, 0
  br i1 %.not49, label %44, label %lean_dec.exit26

44:                                               ; preds = %lean_dec.exit27
  %45 = load i32, ptr %8, align 4, !tbaa !4
  %46 = icmp sgt i32 %45, 1
  br i1 %46, label %47, label %49, !prof !14

47:                                               ; preds = %44
  %48 = add nsw i32 %45, -1
  store i32 %48, ptr %8, align 4, !tbaa !4
  br label %lean_dec.exit26

49:                                               ; preds = %44
  %.not.i34 = icmp eq i32 %45, 0
  br i1 %.not.i34, label %lean_dec.exit26, label %50

50:                                               ; preds = %49
  tail call void @lean_dec_ref_cold(ptr noundef nonnull %8) #6
  br label %lean_dec.exit26

lean_dec.exit26:                                  ; preds = %50, %49, %47, %lean_dec.exit27
  %51 = ptrtoint ptr %7 to i64
  %52 = and i64 %51, 1
  %.not50 = icmp eq i64 %52, 0
  br i1 %.not50, label %53, label %lean_dec.exit25

53:                                               ; preds = %lean_dec.exit26
  %54 = load i32, ptr %7, align 4, !tbaa !4
  %55 = icmp sgt i32 %54, 1
  br i1 %55, label %56, label %58, !prof !14

56:                                               ; preds = %53
  %57 = add nsw i32 %54, -1
  store i32 %57, ptr %7, align 4, !tbaa !4
  br label %lean_dec.exit25

58:                                               ; preds = %53
  %.not.i36 = icmp eq i32 %54, 0
  br i1 %.not.i36, label %lean_dec.exit25, label %59

59:                                               ; preds = %58
  tail call void @lean_dec_ref_cold(ptr noundef nonnull %7) #6
  br label %lean_dec.exit25

lean_dec.exit25:                                  ; preds = %59, %58, %56, %lean_dec.exit26
  %60 = ptrtoint ptr %6 to i64
  %61 = and i64 %60, 1
  %.not51 = icmp eq i64 %61, 0
  br i1 %.not51, label %62, label %lean_dec.exit24

62:                                               ; preds = %lean_dec.exit25
  %63 = load i32, ptr %6, align 4, !tbaa !4
  %64 = icmp sgt i32 %63, 1
  br i1 %64, label %65, label %67, !prof !14

65:                                               ; preds = %62
  %66 = add nsw i32 %63, -1
  store i32 %66, ptr %6, align 4, !tbaa !4
  br label %lean_dec.exit24

67:                                               ; preds = %62
  %.not.i38 = icmp eq i32 %63, 0
  br i1 %.not.i38, label %lean_dec.exit24, label %68

68:                                               ; preds = %67
  tail call void @lean_dec_ref_cold(ptr noundef nonnull %6) #6
  br label %lean_dec.exit24

lean_dec.exit24:                                  ; preds = %68, %67, %65, %lean_dec.exit25
  %69 = ptrtoint ptr %2 to i64
  %70 = and i64 %69, 1
  %.not52 = icmp eq i64 %70, 0
  br i1 %.not52, label %71, label %lean_dec.exit23

71:                                               ; preds = %lean_dec.exit24
  %72 = load i32, ptr %2, align 4, !tbaa !4
  %73 = icmp sgt i32 %72, 1
  br i1 %73, label %74, label %76, !prof !14

74:                                               ; preds = %71
  %75 = add nsw i32 %72, -1
  store i32 %75, ptr %2, align 4, !tbaa !4
  br label %lean_dec.exit23

76:                                               ; preds = %71
  %.not.i40 = icmp eq i32 %72, 0
  br i1 %.not.i40, label %lean_dec.exit23, label %77

77:                                               ; preds = %76
  tail call void @lean_dec_ref_cold(ptr noundef nonnull %2) #6
  br label %lean_dec.exit23

lean_dec.exit23:                                  ; preds = %77, %76, %74, %lean_dec.exit24
  %78 = ptrtoint ptr %1 to i64
  %79 = and i64 %78, 1
  %.not53 = icmp eq i64 %79, 0
  br i1 %.not53, label %80, label %lean_dec.exit22

80:                                               ; preds = %lean_dec.exit23
  %81 = load i32, ptr %1, align 4, !tbaa !4
  %82 = icmp sgt i32 %81, 1
  br i1 %82, label %83, label %85, !prof !14

83:                                               ; preds = %80
  %84 = add nsw i32 %81, -1
  store i32 %84, ptr %1, align 4, !tbaa !4
  br label %lean_dec.exit22

85:                                               ; preds = %80
  %.not.i42 = icmp eq i32 %81, 0
  br i1 %.not.i42, label %lean_dec.exit22, label %86

86:                                               ; preds = %85
  tail call void @lean_dec_ref_cold(ptr noundef nonnull %1) #6
  br label %lean_dec.exit22

lean_dec.exit22:                                  ; preds = %86, %85, %83, %lean_dec.exit23
  %87 = ptrtoint ptr %0 to i64
  %88 = and i64 %87, 1
  %.not54 = icmp eq i64 %88, 0
  br i1 %.not54, label %89, label %lean_dec.exit

89:                                               ; preds = %lean_dec.exit22
  %90 = load i32, ptr %0, align 4, !tbaa !4
  %91 = icmp sgt i32 %90, 1
  br i1 %91, label %92, label %94, !prof !14

92:                                               ; preds = %89
  %93 = add nsw i32 %90, -1
  store i32 %93, ptr %0, align 4, !tbaa !4
  br label %lean_dec.exit

94:                                               ; preds = %89
  %.not.i44 = icmp eq i32 %90, 0
  br i1 %.not.i44, label %lean_dec.exit, label %95

95:                                               ; preds = %94
  tail call void @lean_dec_ref_cold(ptr noundef nonnull %0) #6
  br label %lean_dec.exit

lean_dec.exit:                                    ; preds = %95, %94, %92, %lean_dec.exit22
  ret ptr %32
}